target datalayout = "e-m:e-p270:32:32-p271:32:32-p272:64:64-i64:64-i128:128-f80:128-n8:16:32:64-S128"
target triple = "x86_64-pc-linux-gnu"

%struct.MovChannelLayoutMap = type { %union.anon.0 }
%union.anon.0 = type { i32 }
%struct.AVChannelLayout = type { i32, i32, %union.anon, ptr }
%union.anon = type { i64 }
%struct.AVChannelCustom = type { i32, [16 x i8], ptr }

; Function Attrs: nounwind uwtable
define internal ptr @find_layout_map(i32 noundef %0, ptr noundef %1) #0 {
  %3 = alloca ptr, align 8
  %4 = alloca i32, align 4
  %5 = alloca ptr, align 8
  %6 = alloca i32, align 4
  %7 = alloca i32, align 4
  store i32 %0, ptr %4, align 4, !tbaa !14
  store ptr %1, ptr %5, align 8, !tbaa !36
  call void @llvm.lifetime.start.p0(i64 4, ptr %6) #4
  store i32 0, ptr %6, align 4, !tbaa !14
  br label %8

8:                                                ; preds = %34, %2
  %9 = load ptr, ptr %5, align 8, !tbaa !36
  %10 = load i32, ptr %6, align 4, !tbaa !14
  %11 = sext i32 %10 to i64
  %12 = getelementptr inbounds %struct.MovChannelLayoutMap, ptr %9, i64 %11
  %13 = getelementptr inbounds nuw %struct.MovChannelLayoutMap, ptr %12, i32 0, i32 0
  %14 = load i32, ptr %13, align 4, !tbaa !31
  %15 = and i32 %14, 65535
  %16 = icmp ne i32 %15, 0
  br i1 %16, label %18, label %17

17:                                               ; preds = %8
  store i32 2, ptr %7, align 4
  br label %45

18:                                               ; preds = %8
  %19 = load ptr, ptr %5, align 8, !tbaa !36
  %20 = load i32, ptr %6, align 4, !tbaa !14
  %21 = sext i32 %20 to i64
  %22 = getelementptr inbounds %struct.MovChannelLayoutMap, ptr %19, i64 %21
  %23 = getelementptr inbounds nuw %struct.MovChannelLayoutMap, ptr %22, i32 0, i32 0
  %24 = load i32, ptr %23, align 4, !tbaa !31
  %25 = load i32, ptr %4, align 4, !tbaa !14
  %26 = icmp eq i32 %24, %25
  br i1 %26, label %27, label %33

27:                                               ; preds = %18
  %28 = load ptr, ptr %5, align 8, !tbaa !36
  %29 = load i32, ptr %6, align 4, !tbaa !14
  %30 = add nsw i32 %29, 1
  %31 = sext i32 %30 to i64
  %32 = getelementptr inbounds %struct.MovChannelLayoutMap, ptr %28, i64 %31
  store ptr %32, ptr %3, align 8
  store i32 1, ptr %7, align 4
  br label %45

33:                                               ; preds = %18
  br label %34

34:                                               ; preds = %33
  %35 = load ptr, ptr %5, align 8, !tbaa !36
  %36 = load i32, ptr %6, align 4, !tbaa !14
  %37 = sext i32 %36 to i64
  %38 = getelementptr inbounds %struct.MovChannelLayoutMap, ptr %35, i64 %37
  %39 = getelementptr inbounds nuw %struct.MovChannelLayoutMap, ptr %38, i32 0, i32 0
  %40 = load i32, ptr %39, align 4, !tbaa !31
  %41 = and i32 %40, 65535
  %42 = add i32 1, %41
  %43 = load i32, ptr %6, align 4, !tbaa !14
  %44 = add i32 %43, %42
  store i32 %44, ptr %6, align 4, !tbaa !14
  br label %8, !llvm.loop !74

45:                                               ; preds = %27, %17
  call void @llvm.lifetime.end.p0(i64 4, ptr %6) #4
  %46 = load i32, ptr %7, align 4
  switch i32 %46, label %50 [
    i32 2, label %47
    i32 1, label %48
  ]

47:                                               ; preds = %45
  store ptr null, ptr %3, align 8
  br label %48

48:                                               ; preds = %47, %45
  %49 = load ptr, ptr %3, align 8
  ret ptr %49

50:                                               ; preds = %45
  unreachable
}

; Function Attrs: nounwind uwtable
define internal i32 @mov_get_channel_layout(ptr noundef %0, i32 noundef %1, i64 noundef %2, ptr noundef %3) #0 {
  %5 = alloca i32, align 4
  %6 = alloca ptr, align 8
  %7 = alloca i32, align 4
  %8 = alloca i64, align 8
  %9 = alloca ptr, align 8
  %10 = alloca ptr, align 8
  %11 = alloca i32, align 4
  %12 = alloca i32, align 4
  %13 = alloca i32, align 4
  %14 = alloca i32, align 4
  %15 = alloca i32, align 4
  %16 = alloca i32, align 4
  %17 = alloca i32, align 4
  store ptr %0, ptr %6, align 8, !tbaa !34
  store i32 %1, ptr %7, align 4, !tbaa !14
  store i64 %2, ptr %8, align 8, !tbaa !46
  store ptr %3, ptr %9, align 8, !tbaa !36
  call void @llvm.lifetime.start.p0(i64 8, ptr %10) #4
  %18 = load i32, ptr %7, align 4, !tbaa !14
  %19 = load ptr, ptr %9, align 8, !tbaa !36
  %20 = call ptr @find_layout_map(i32 noundef %18, ptr noundef %19)
  store ptr %20, ptr %10, align 8, !tbaa !36
  %21 = load ptr, ptr %10, align 8, !tbaa !36
  %22 = icmp ne ptr %21, null
  br i1 %22, label %23, label %92

23:                                               ; preds = %4
  call void @llvm.lifetime.start.p0(i64 4, ptr %11) #4
  call void @llvm.lifetime.start.p0(i64 4, ptr %12) #4
  %24 = load i32, ptr %7, align 4, !tbaa !14
  %25 = and i32 %24, 65535
  store i32 %25, ptr %12, align 4, !tbaa !14
  call void @llvm.lifetime.start.p0(i64 4, ptr %13) #4
  %26 = load ptr, ptr %6, align 8, !tbaa !34
  %27 = getelementptr inbounds nuw %struct.AVChannelLayout, ptr %26, i32 0, i32 1
  %28 = load i32, ptr %27, align 4, !tbaa !38
  store i32 %28, ptr %13, align 4, !tbaa !14
  %29 = load i64, ptr %8, align 8, !tbaa !46
  %30 = load i32, ptr %12, align 4, !tbaa !14
  %31 = zext i32 %30 to i64
  %32 = lshr i64 %29, %31
  %33 = icmp ne i64 %32, 0
  br i1 %33, label %34, label %35

34:                                               ; preds = %23
  store i32 -1094995529, ptr %5, align 4
  store i32 1, ptr %14, align 4
  br label %91

35:                                               ; preds = %23
  %36 = load ptr, ptr %6, align 8, !tbaa !34
  call void @av_channel_layout_uninit(ptr noundef %36)
  %37 = load ptr, ptr %6, align 8, !tbaa !34
  %38 = load i32, ptr %13, align 4, !tbaa !14
  %39 = call i32 @av_channel_layout_custom_init(ptr noundef %37, i32 noundef %38)
  store i32 %39, ptr %11, align 4, !tbaa !14
  %40 = load i32, ptr %11, align 4, !tbaa !14
  %41 = icmp slt i32 %40, 0
  br i1 %41, label %42, label %44

42:                                               ; preds = %35
  %43 = load i32, ptr %11, align 4, !tbaa !14
  store i32 %43, ptr %5, align 4
  store i32 1, ptr %14, align 4
  br label %91

44:                                               ; preds = %35
  call void @llvm.lifetime.start.p0(i64 4, ptr %15) #4
  store i32 0, ptr %15, align 4, !tbaa !14
  call void @llvm.lifetime.start.p0(i64 4, ptr %16) #4
  store i32 0, ptr %16, align 4, !tbaa !14
  br label %45

45:                                               ; preds = %83, %44
  %46 = load i32, ptr %15, align 4, !tbaa !14
  %47 = load i32, ptr %12, align 4, !tbaa !14
  %48 = icmp slt i32 %46, %47
  br i1 %48, label %49, label %53

49:                                               ; preds = %45
  %50 = load i32, ptr %16, align 4, !tbaa !14
  %51 = load i32, ptr %13, align 4, !tbaa !14
  %52 = icmp slt i32 %50, %51
  br label %53

53:                                               ; preds = %49, %45
  %54 = phi i1 [ false, %45 ], [ %52, %49 ]
  br i1 %54, label %56, label %55

55:                                               ; preds = %53
  store i32 2, ptr %14, align 4
  call void @llvm.lifetime.end.p0(i64 4, ptr %16) #4
  call void @llvm.lifetime.end.p0(i64 4, ptr %15) #4
  br label %88

56:                                               ; preds = %53
  %57 = load i64, ptr %8, align 8, !tbaa !46
  %58 = and i64 %57, 1
  %59 = icmp ne i64 %58, 0
  br i1 %59, label %82, label %60

60:                                               ; preds = %56
  call void @llvm.lifetime.start.p0(i64 4, ptr %17) #4
  %61 = load ptr, ptr %10, align 8, !tbaa !36
  %62 = load i32, ptr %15, align 4, !tbaa !14
  %63 = sext i32 %62 to i64
  %64 = getelementptr inbounds %struct.MovChannelLayoutMap, ptr %61, i64 %63
  %65 = getelementptr inbounds nuw %struct.MovChannelLayoutMap, ptr %64, i32 0, i32 0
  %66 = load i32, ptr %65, align 4, !tbaa !31
  store i32 %66, ptr %17, align 4, !tbaa !14
  %67 = load i32, ptr %17, align 4, !tbaa !14
  %68 = icmp ne i32 %67, -1
  br i1 %68, label %69, label %71

69:                                               ; preds = %60
  %70 = load i32, ptr %17, align 4, !tbaa !14
  br label %72

71:                                               ; preds = %60
  br label %72

72:                                               ; preds = %71, %69
  %73 = phi i32 [ %70, %69 ], [ 768, %71 ]
  %74 = load ptr, ptr %6, align 8, !tbaa !34
  %75 = getelementptr inbounds nuw %struct.AVChannelLayout, ptr %74, i32 0, i32 2
  %76 = load ptr, ptr %75, align 8, !tbaa !31
  %77 = load i32, ptr %16, align 4, !tbaa !14
  %78 = add nsw i32 %77, 1
  store i32 %78, ptr %16, align 4, !tbaa !14
  %79 = sext i32 %77 to i64
  %80 = getelementptr inbounds %struct.AVChannelCustom, ptr %76, i64 %79
  %81 = getelementptr inbounds nuw %struct.AVChannelCustom, ptr %80, i32 0, i32 0
  store i32 %73, ptr %81, align 8, !tbaa !65
  call void @llvm.lifetime.end.p0(i64 4, ptr %17) #4
  br label %82

82:                                               ; preds = %72, %56
  br label %83

83:                                               ; preds = %82
  %84 = load i32, ptr %15, align 4, !tbaa !14
  %85 = add nsw i32 %84, 1
  store i32 %85, ptr %15, align 4, !tbaa !14
  %86 = load i64, ptr %8, align 8, !tbaa !46
  %87 = lshr i64 %86, 1
  store i64 %87, ptr %8, align 8, !tbaa !46
  br label %45, !llvm.loop !68

88:                                               ; preds = %55
  %89 = load ptr, ptr %6, align 8, !tbaa !34
  %90 = call i32 @av_channel_layout_retype(ptr noundef %89, i32 noundef 0, i32 noundef 2)
  store i32 %90, ptr %5, align 4
  store i32 1, ptr %14, align 4
  br label %91

91:                                               ; preds = %88, %42, %34
  call void @llvm.lifetime.end.p0(i64 4, ptr %13) #4
  call void @llvm.lifetime.end.p0(i64 4, ptr %12) #4
  call void @llvm.lifetime.end.p0(i64 4, ptr %11) #4
  br label %93

92:                                               ; preds = %4
  store i32 0, ptr %5, align 4
  store i32 1, ptr %14, align 4
  br label %93

93:                                               ; preds = %92, %91
  call void @llvm.lifetime.end.p0(i64 8, ptr %10) #4
  %94 = load i32, ptr %5, align 4
  ret i32 %94
}