; Function Attrs: nounwind uwtable
define internal fastcc i32 @mov_get_channel_layout(ptr noundef %0, i32 noundef range(i32 1, 0) %1, i64 noundef %2, ptr noundef readonly captures(address) %3) unnamed_addr #0 {
  %5 = load i32, ptr %3, align 4, !tbaa !23
  %6 = and i32 %5, 65535
  %.not15.i = icmp eq i32 %6, 0
  br i1 %.not15.i, label %find_layout_map.exit.thread, label %.lr.ph.i.preheader

.lr.ph.i.preheader:                               ; preds = %4
  %7 = icmp eq i32 %5, %1
  br i1 %7, label %find_layout_map.exit, label %.lr.ph

.lr.ph.i:                                         ; preds = %.lr.ph
  %8 = icmp eq i32 %14, %1
  br i1 %8, label %find_layout_map.exit, label %.lr.ph, !llvm.loop !22

.lr.ph:                                           ; preds = %.lr.ph.i.preheader, %.lr.ph.i
  %.01116.i38 = phi i32 [ %11, %.lr.ph.i ], [ 0, %.lr.ph.i.preheader ]
  %9 = phi i32 [ %15, %.lr.ph.i ], [ %6, %.lr.ph.i.preheader ]
  %10 = add nuw nsw i32 %9, 1
  %11 = add i32 %10, %.01116.i38
  %12 = sext i32 %11 to i64
  %13 = getelementptr inbounds %struct.MovChannelLayoutMap, ptr %3, i64 %12
  %14 = load i32, ptr %13, align 4, !tbaa !23
  %15 = and i32 %14, 65535
  %.not.i = icmp eq i32 %15, 0
  br i1 %.not.i, label %find_layout_map.exit.thread, label %.lr.ph.i, !llvm.loop !22

find_layout_map.exit:                             ; preds = %.lr.ph.i, %.lr.ph.i.preheader
  %.lcssa = phi i64 [ 0, %.lr.ph.i.preheader ], [ %12, %.lr.ph.i ]
  %16 = getelementptr inbounds %struct.MovChannelLayoutMap, ptr %3, i64 %.lcssa
  %17 = getelementptr i8, ptr %16, i64 4
  %.not = icmp eq ptr %17, null
  br i1 %.not, label %find_layout_map.exit.thread, label %18

18:                                               ; preds = %find_layout_map.exit
  %19 = and i32 %1, 65535
  %20 = getelementptr inbounds nuw i8, ptr %0, i64 4
  %21 = load i32, ptr %20, align 4, !tbaa !21
  %22 = zext nneg i32 %19 to i64
  %23 = lshr i64 %2, %22
  %.not32 = icmp eq i64 %23, 0
  br i1 %.not32, label %24, label %find_layout_map.exit.thread

24:                                               ; preds = %18
  tail call void @av_channel_layout_uninit(ptr noundef nonnull %0) #3
  %25 = tail call i32 @av_channel_layout_custom_init(ptr noundef nonnull %0, i32 noundef %21) #3
  %26 = icmp slt i32 %25, 0
  br i1 %26, label %find_layout_map.exit.thread, label %.preheader

.preheader:                                       ; preds = %24
  %27 = icmp ne i32 %19, 0
  %28 = icmp sgt i32 %21, 0
  %29 = select i1 %27, i1 %28, i1 false
  br i1 %29, label %.lr.ph42, label %._crit_edge

.lr.ph42:                                         ; preds = %.preheader
  %30 = getelementptr inbounds nuw i8, ptr %0, i64 8
  br label %32

._crit_edge:                                      ; preds = %42, %.preheader
  %31 = tail call i32 @av_channel_layout_retype(ptr noundef nonnull %0, i32 noundef 0, i32 noundef 2) #3
  br label %find_layout_map.exit.thread

32:                                               ; preds = %.lr.ph42, %42
  %indvars.iv = phi i64 [ 0, %.lr.ph42 ], [ %indvars.iv.next, %42 ]
  %.02641 = phi i32 [ 0, %.lr.ph42 ], [ %.127, %42 ]
  %.02939 = phi i64 [ %2, %.lr.ph42 ], [ %43, %42 ]
  %33 = and i64 %.02939, 1
  %.not33 = icmp eq i64 %33, 0
  br i1 %.not33, label %34, label %42

34:                                               ; preds = %32
  %35 = getelementptr inbounds nuw %struct.MovChannelLayoutMap, ptr %17, i64 %indvars.iv
  %36 = load i32, ptr %35, align 4, !tbaa !23
  %.not34 = icmp eq i32 %36, -1
  %37 = select i1 %.not34, i32 768, i32 %36
  %38 = load ptr, ptr %30, align 8, !tbaa !23
  %39 = add nsw i32 %.02641, 1
  %40 = sext i32 %.02641 to i64
  %41 = getelementptr inbounds %struct.AVChannelCustom, ptr %38, i64 %40
  store i32 %37, ptr %41, align 8, !tbaa !52
  br label %42

42:                                               ; preds = %32, %34
  %.127 = phi i32 [ %.02641, %32 ], [ %39, %34 ]
  %indvars.iv.next = add nuw nsw i64 %indvars.iv, 1
  %43 = lshr i64 %.02939, 1
  %44 = icmp samesign ult i64 %indvars.iv.next, %22
  %45 = icmp slt i32 %.127, %21
  %46 = select i1 %44, i1 %45, i1 false
  br i1 %46, label %32, label %._crit_edge, !llvm.loop !55

find_layout_map.exit.thread:                      ; preds = %.lr.ph, %4, %find_layout_map.exit, %._crit_edge, %18, %24
  %.1 = phi i32 [ %31, %._crit_edge ], [ -1094995529, %18 ], [ %25, %24 ], [ 0, %find_layout_map.exit ], [ 0, %4 ], [ 0, %.lr.ph ]
  ret i32 %.1
}